; Function Attrs: mustprogress uwtable
define void @_ZN17CaptureFileDialog16addRangeControlsER11QVBoxLayoutP16packet_range_tag7QString(ptr noundef nonnull align 8 dereferenceable(572) %0, ptr noundef nonnull align 8 dereferenceable(28) %1, ptr noundef %2, ptr nocapture noundef readonly %3) local_unnamed_addr #0 align 2 personality ptr @__gxx_personality_v0 {
  %5 = alloca %class.QString, align 8
  %6 = getelementptr inbounds i8, ptr %0, i64 496
  %7 = load ptr, ptr %3, align 8
  store ptr %7, ptr %5, align 8
  %8 = getelementptr inbounds i8, ptr %5, i64 8
  %9 = getelementptr inbounds i8, ptr %3, i64 8
  %10 = load ptr, ptr %9, align 8
  store ptr %10, ptr %8, align 8
  %11 = getelementptr inbounds i8, ptr %5, i64 16
  %12 = getelementptr inbounds i8, ptr %3, i64 16
  %13 = load i64, ptr %12, align 8
  store i64 %13, ptr %11, align 8
  %.not.i.i.i = icmp eq ptr %7, null
  br i1 %.not.i.i.i, label %_ZN7QStringC2ERKS_.exit, label %14

14:                                               ; preds = %4
  %15 = atomicrmw add ptr %7, i32 1 seq_cst, align 4
  br label %_ZN7QStringC2ERKS_.exit

_ZN7QStringC2ERKS_.exit:                          ; preds = %4, %14
  invoke void @_ZN19PacketRangeGroupBox9initRangeEP16packet_range_tag7QString(ptr noundef nonnull align 8 dereferenceable(60) %6, ptr noundef %2, ptr noundef nonnull %5)
          to label %16 unwind label %21

16:                                               ; preds = %_ZN7QStringC2ERKS_.exit
  %17 = load ptr, ptr %5, align 8
  %.not.i.i.i4 = icmp eq ptr %17, null
  br i1 %.not.i.i.i4, label %_ZN7QStringD2Ev.exit, label %_ZN17QArrayDataPointerIDsE5derefEv.exit.i.i

_ZN17QArrayDataPointerIDsE5derefEv.exit.i.i:      ; preds = %16
  %18 = atomicrmw sub ptr %17, i32 1 seq_cst, align 4
  %.not.i.i = icmp eq i32 %18, 1
  br i1 %.not.i.i, label %19, label %_ZN7QStringD2Ev.exit

19:                                               ; preds = %_ZN17QArrayDataPointerIDsE5derefEv.exit.i.i
  %20 = load ptr, ptr %5, align 8
  call void @_ZN10QArrayData10deallocateEPS_xx(ptr noundef %20, i64 noundef 2, i64 noundef 8) #18
  br label %_ZN7QStringD2Ev.exit

_ZN7QStringD2Ev.exit:                             ; preds = %16, %_ZN17QArrayDataPointerIDsE5derefEv.exit.i.i, %19
  call void @_ZN10QBoxLayout9addWidgetEP7QWidgeti6QFlagsIN2Qt13AlignmentFlagEE(ptr noundef nonnull align 8 dereferenceable(28) %1, ptr noundef nonnull %6, i32 noundef 0, i32 32)
  ret void

21:                                               ; preds = %_ZN7QStringC2ERKS_.exit
  %22 = landingpad { ptr, i32 }
          cleanup
  %23 = load ptr, ptr %5, align 8
  %.not.i.i.i5 = icmp eq ptr %23, null
  br i1 %.not.i.i.i5, label %_ZN7QStringD2Ev.exit8, label %_ZN17QArrayDataPointerIDsE5derefEv.exit.i.i6

_ZN17QArrayDataPointerIDsE5derefEv.exit.i.i6:     ; preds = %21
  %24 = atomicrmw sub ptr %23, i32 1 seq_cst, align 4
  %.not.i.i7 = icmp eq i32 %24, 1
  br i1 %.not.i.i7, label %25, label %_ZN7QStringD2Ev.exit8

25:                                               ; preds = %_ZN17QArrayDataPointerIDsE5derefEv.exit.i.i6
  %26 = load ptr, ptr %5, align 8
  call void @_ZN10QArrayData10deallocateEPS_xx(ptr noundef %26, i64 noundef 2, i64 noundef 8) #18
  br label %_ZN7QStringD2Ev.exit8

_ZN7QStringD2Ev.exit8:                            ; preds = %21, %_ZN17QArrayDataPointerIDsE5derefEv.exit.i.i6, %25
  resume { ptr, i32 } %22
}